target datalayout = "e-m:e-p270:32:32-p271:32:32-p272:64:64-i64:64-i128:128-f80:128-n8:16:32:64-S128"
target triple = "x86_64-pc-linux-gnu"

@.str.41 = private unnamed_addr constant [6 x i8] c"match\00", align 1
@match.rbimpl_id = internal global i64 0, align 8
@rfc3339.pat_source = internal constant [98 x i8] c"\\A\\s*(-?\\d{4})-(\\d{2})-(\\d{2})(?:t|\\s)(\\d{2}):(\\d{2}):(\\d{2})(?:\\.(\\d+))?(z|[-+]\\d{2}:\\d{2})\\s*\\z\00", align 16
@rfc3339.pat = internal global i64 4, align 8

; Function Attrs: inlinehint nounwind sspstrong willreturn memory(read) uwtable
define internal i64 @rb_intern_const(ptr noundef nonnull %0) #2 {
  %2 = alloca ptr, align 8
  %3 = alloca i64, align 8
  store ptr %0, ptr %2, align 8, !tbaa !10
  call void @llvm.lifetime.start.p0(i64 8, ptr %3) #21
  %4 = load ptr, ptr %2, align 8, !tbaa !10
  %5 = call i64 @strlen(ptr noundef %4) #22
  store i64 %5, ptr %3, align 8, !tbaa !6
  %6 = load ptr, ptr %2, align 8, !tbaa !10
  %7 = load i64, ptr %3, align 8, !tbaa !6
  %8 = call i64 @rb_intern2(ptr noundef %6, i64 noundef %7)
  call void @llvm.lifetime.end.p0(i64 8, ptr %3) #21
  ret i64 %8
}

; Function Attrs: inlinehint nounwind sspstrong memory(argmem: readwrite, inaccessiblemem: readwrite) uwtable
define internal i64 @rbimpl_intern_const(ptr noundef nonnull %0, ptr noundef nonnull %1) #7 {
  %3 = alloca ptr, align 8
  %4 = alloca ptr, align 8
  store ptr %0, ptr %3, align 8, !tbaa !20
  store ptr %1, ptr %4, align 8, !tbaa !10
  br label %5

5:                                                ; preds = %10, %2
  %6 = load ptr, ptr %3, align 8, !tbaa !20
  %7 = load i64, ptr %6, align 8, !tbaa !6
  %8 = icmp ne i64 %7, 0
  %9 = xor i1 %8, true
  br i1 %9, label %10, label %14

10:                                               ; preds = %5
  %11 = load ptr, ptr %4, align 8, !tbaa !10
  %12 = call i64 @rb_intern_const(ptr noundef %11) #22
  %13 = load ptr, ptr %3, align 8, !tbaa !20
  store i64 %12, ptr %13, align 8, !tbaa !6
  br label %5, !llvm.loop !35

14:                                               ; preds = %5
  %15 = load ptr, ptr %3, align 8, !tbaa !20
  %16 = load i64, ptr %15, align 8, !tbaa !6
  ret i64 %16
}

; Function Attrs: nounwind sspstrong uwtable
define internal i32 @match(i64 noundef %0, i64 noundef %1, i64 noundef %2, ptr noundef %3) #0 {
  %5 = alloca i32, align 4
  %6 = alloca i64, align 8
  %7 = alloca i64, align 8
  %8 = alloca i64, align 8
  %9 = alloca ptr, align 8
  %10 = alloca i64, align 8
  %11 = alloca i64, align 8
  %12 = alloca i32, align 4
  store i64 %0, ptr %6, align 8, !tbaa !6
  store i64 %1, ptr %7, align 8, !tbaa !6
  store i64 %2, ptr %8, align 8, !tbaa !6
  store ptr %3, ptr %9, align 8, !tbaa !39
  call void @llvm.lifetime.start.p0(i64 8, ptr %10) #21
  %13 = load i64, ptr %7, align 8, !tbaa !6
  %14 = call i64 @rbimpl_intern_const(ptr noundef @match.rbimpl_id, ptr noundef @.str.41) #25
  store i64 %14, ptr %11, align 8, !tbaa !6
  %15 = load i64, ptr %11, align 8, !tbaa !6
  %16 = load i64, ptr %6, align 8, !tbaa !6
  %17 = call i64 (i64, i64, i32, ...) @rb_funcall(i64 noundef %13, i64 noundef %15, i32 noundef 1, i64 noundef %16)
  store i64 %17, ptr %10, align 8, !tbaa !6
  %18 = load i64, ptr %10, align 8, !tbaa !6
  %19 = call zeroext i1 @RB_NIL_P(i64 noundef %18) #23
  br i1 %19, label %20, label %21

20:                                               ; preds = %4
  store i32 0, ptr %5, align 4
  store i32 1, ptr %12, align 4
  br label %26

21:                                               ; preds = %4
  %22 = load ptr, ptr %9, align 8, !tbaa !39
  %23 = load i64, ptr %10, align 8, !tbaa !6
  %24 = load i64, ptr %8, align 8, !tbaa !6
  %25 = call i32 %22(i64 noundef %23, i64 noundef %24)
  store i32 1, ptr %5, align 4
  store i32 1, ptr %12, align 4
  br label %26

26:                                               ; preds = %21, %20
  call void @llvm.lifetime.end.p0(i64 8, ptr %10) #21
  %27 = load i32, ptr %5, align 4
  ret i32 %27
}

; Function Attrs: nounwind sspstrong uwtable
define internal i64 @regcomp(ptr noundef %0, i64 noundef %1, i32 noundef %2) #0 {
  %4 = alloca ptr, align 8
  %5 = alloca i64, align 8
  %6 = alloca i32, align 4
  %7 = alloca i64, align 8
  store ptr %0, ptr %4, align 8, !tbaa !10
  store i64 %1, ptr %5, align 8, !tbaa !6
  store i32 %2, ptr %6, align 4, !tbaa !13
  call void @llvm.lifetime.start.p0(i64 8, ptr %7) #21
  %8 = load ptr, ptr %4, align 8, !tbaa !10
  %9 = load i64, ptr %5, align 8, !tbaa !6
  %10 = load i32, ptr %6, align 4, !tbaa !13
  %11 = call i64 @rb_reg_new(ptr noundef %8, i64 noundef %9, i32 noundef %10)
  store i64 %11, ptr %7, align 8, !tbaa !6
  %12 = load i64, ptr %7, align 8, !tbaa !6
  %13 = call i64 @rb_obj_freeze(i64 noundef %12)
  %14 = load i64, ptr %7, align 8, !tbaa !6
  call void @rb_gc_register_mark_object(i64 noundef %14)
  %15 = load i64, ptr %7, align 8, !tbaa !6
  call void @llvm.lifetime.end.p0(i64 8, ptr %7) #21
  ret i64 %15
}

; Function Attrs: inlinehint nounwind sspstrong willreturn memory(none) uwtable
define internal zeroext i1 @RB_NIL_P(i64 noundef %0) #4 {
  %2 = alloca i64, align 8
  store i64 %0, ptr %2, align 8, !tbaa !6
  %3 = load i64, ptr %2, align 8, !tbaa !6
  %4 = icmp eq i64 %3, 4
  ret i1 %4
}

; Function Attrs: nounwind sspstrong uwtable
define internal i32 @rfc3339(i64 noundef %0, i64 noundef %1) #0 {
  %3 = alloca i64, align 8
  %4 = alloca i64, align 8
  store i64 %0, ptr %3, align 8, !tbaa !6
  store i64 %1, ptr %4, align 8, !tbaa !6
  br label %5

5:                                                ; preds = %2
  %6 = load i64, ptr @rfc3339.pat, align 8, !tbaa !6
  %7 = call zeroext i1 @RB_NIL_P(i64 noundef %6) #23
  br i1 %7, label %8, label %10

8:                                                ; preds = %5
  %9 = call i64 @regcomp(ptr noundef @rfc3339.pat_source, i64 noundef 97, i32 noundef 1)
  store i64 %9, ptr @rfc3339.pat, align 8, !tbaa !6
  br label %10

10:                                               ; preds = %8, %5
  br label %11

11:                                               ; preds = %10
  br label %12

12:                                               ; preds = %11
  %13 = load i64, ptr %3, align 8, !tbaa !6
  %14 = load i64, ptr @rfc3339.pat, align 8, !tbaa !6
  %15 = load i64, ptr %4, align 8, !tbaa !6
  %16 = call i32 @match(i64 noundef %13, i64 noundef %14, i64 noundef %15, ptr noundef @rfc3339_cb)
  br label %17

17:                                               ; preds = %12
  ret i32 %16
}

; Function Attrs: nounwind sspstrong uwtable
define i64 @date__rfc3339(i64 noundef %0) #0 {
  %2 = alloca i64, align 8
  %3 = alloca i64, align 8
  %4 = alloca i64, align 8
  store i64 %0, ptr %2, align 8, !tbaa !6
  call void @llvm.lifetime.start.p0(i64 8, ptr %3) #21
  call void @llvm.lifetime.start.p0(i64 8, ptr %4) #21
  %5 = call i64 @rb_backref_get()
  store i64 %5, ptr %3, align 8, !tbaa !6
  %6 = load i64, ptr %3, align 8, !tbaa !6
  call void @rb_match_busy(i64 noundef %6)
  %7 = call i64 @rb_hash_new()
  store i64 %7, ptr %4, align 8, !tbaa !6
  %8 = load i64, ptr %2, align 8, !tbaa !6
  %9 = load i64, ptr %4, align 8, !tbaa !6
  %10 = call i32 @rfc3339(i64 noundef %8, i64 noundef %9)
  %11 = load i64, ptr %3, align 8, !tbaa !6
  call void @rb_backref_set(i64 noundef %11)
  %12 = load i64, ptr %4, align 8, !tbaa !6
  call void @llvm.lifetime.end.p0(i64 8, ptr %4) #21
  call void @llvm.lifetime.end.p0(i64 8, ptr %3) #21
  ret i64 %12
}