; Function Attrs: nounwind sspstrong uwtable
define i64 @date__rfc3339(i64 noundef %0) local_unnamed_addr #0 {
  %2 = alloca [9 x i64], align 16
  %3 = tail call i64 @rb_backref_get() #13
  tail call void @rb_match_busy(i64 noundef %3) #13
  %4 = tail call i64 @rb_hash_new() #13
  %5 = load i64, ptr @rfc3339.pat, align 8, !tbaa !6
  %6 = icmp eq i64 %5, 4
  br i1 %6, label %7, label %10

7:                                                ; preds = %1
  %8 = tail call i64 @rb_reg_new(ptr noundef nonnull @rfc3339.pat_source, i64 noundef 97, i32 noundef 1) #13
  %9 = tail call i64 @rb_obj_freeze(i64 noundef %8) #13
  tail call void @rb_gc_register_mark_object(i64 noundef %8) #13
  store i64 %8, ptr @rfc3339.pat, align 8, !tbaa !6
  br label %10

10:                                               ; preds = %7, %1
  %11 = phi i64 [ %8, %7 ], [ %5, %1 ]
  %.pr.i.i.i = load i64, ptr @match.rbimpl_id, align 8, !tbaa !6
  %.not4.i.i.i = icmp eq i64 %.pr.i.i.i, 0
  br i1 %.not4.i.i.i, label %.lr.ph.i.i.i, label %rbimpl_intern_const.exit.i.i

.lr.ph.i.i.i:                                     ; preds = %10, %.lr.ph.i.i.i
  %12 = tail call i64 @rb_intern2(ptr noundef nonnull @.str.41, i64 noundef 5) #13
  store i64 %12, ptr @match.rbimpl_id, align 8, !tbaa !6
  %.not.i.i.i = icmp eq i64 %12, 0
  br i1 %.not.i.i.i, label %.lr.ph.i.i.i, label %rbimpl_intern_const.exit.i.i, !llvm.loop !36

rbimpl_intern_const.exit.i.i:                     ; preds = %.lr.ph.i.i.i, %10
  %.lcssa.i.i.i = phi i64 [ %.pr.i.i.i, %10 ], [ %12, %.lr.ph.i.i.i ]
  %13 = tail call i64 (i64, i64, i32, ...) @rb_funcall(i64 noundef %11, i64 noundef %.lcssa.i.i.i, i32 noundef 1, i64 noundef %0) #13
  %14 = icmp eq i64 %13, 4
  br i1 %14, label %rfc3339.exit, label %15

15:                                               ; preds = %rbimpl_intern_const.exit.i.i
  call void @llvm.lifetime.start.p0(i64 72, ptr nonnull %2) #13
  br label %16

16:                                               ; preds = %16, %15
  %indvars.iv.i.i = phi i64 [ 1, %15 ], [ %indvars.iv.next.i.i, %16 ]
  %17 = trunc nuw nsw i64 %indvars.iv.i.i to i32
  %18 = tail call i64 @rb_reg_nth_match(i32 noundef %17, i64 noundef %13) #13
  %19 = getelementptr inbounds nuw [9 x i64], ptr %2, i64 0, i64 %indvars.iv.i.i
  store i64 %18, ptr %19, align 8, !tbaa !6
  %indvars.iv.next.i.i = add nuw nsw i64 %indvars.iv.i.i, 1
  %exitcond.not.i.i = icmp eq i64 %indvars.iv.next.i.i, 9
  br i1 %exitcond.not.i.i, label %20, label %16, !llvm.loop !100

20:                                               ; preds = %16
  %.pr.i.i2.i = load i64, ptr @rfc3339_cb.rbimpl_id, align 8, !tbaa !6
  %.not4.i.i3.i = icmp eq i64 %.pr.i.i2.i, 0
  br i1 %.not4.i.i3.i, label %.lr.ph.i.i6.i, label %rbimpl_intern_const.exit.i4.i

.lr.ph.i.i6.i:                                    ; preds = %20, %.lr.ph.i.i6.i
  %21 = tail call i64 @rb_intern2(ptr noundef nonnull @.str.18, i64 noundef 4) #13
  store i64 %21, ptr @rfc3339_cb.rbimpl_id, align 8, !tbaa !6
  %.not.i.i7.i = icmp eq i64 %21, 0
  br i1 %.not.i.i7.i, label %.lr.ph.i.i6.i, label %rbimpl_intern_const.exit.i4.i, !llvm.loop !36

rbimpl_intern_const.exit.i4.i:                    ; preds = %.lr.ph.i.i6.i, %20
  %.lcssa.i.i5.i = phi i64 [ %.pr.i.i2.i, %20 ], [ %21, %.lr.ph.i.i6.i ]
  %22 = tail call i64 @rb_id2sym(i64 noundef %.lcssa.i.i5.i) #13
  %23 = getelementptr inbounds nuw i8, ptr %2, i64 8
  %24 = load i64, ptr %23, align 8, !tbaa !6
  %25 = tail call i64 @rb_str_to_inum(i64 noundef %24, i32 noundef 10, i32 noundef 0) #13
  %26 = tail call i64 @rb_hash_aset(i64 noundef %4, i64 noundef %22, i64 noundef %25) #13
  %.pr.i23.i.i = load i64, ptr @rfc3339_cb.rbimpl_id.176, align 8, !tbaa !6
  %.not4.i24.i.i = icmp eq i64 %.pr.i23.i.i, 0
  br i1 %.not4.i24.i.i, label %.lr.ph.i26.i.i, label %rbimpl_intern_const.exit28.i.i

.lr.ph.i26.i.i:                                   ; preds = %rbimpl_intern_const.exit.i4.i, %.lr.ph.i26.i.i
  %27 = tail call i64 @rb_intern2(ptr noundef nonnull @.str.63, i64 noundef 3) #13
  store i64 %27, ptr @rfc3339_cb.rbimpl_id.176, align 8, !tbaa !6
  %.not.i27.i.i = icmp eq i64 %27, 0
  br i1 %.not.i27.i.i, label %.lr.ph.i26.i.i, label %rbimpl_intern_const.exit28.i.i, !llvm.loop !36

rbimpl_intern_const.exit28.i.i:                   ; preds = %.lr.ph.i26.i.i, %rbimpl_intern_const.exit.i4.i
  %.lcssa.i25.i.i = phi i64 [ %.pr.i23.i.i, %rbimpl_intern_const.exit.i4.i ], [ %27, %.lr.ph.i26.i.i ]
  %28 = tail call i64 @rb_id2sym(i64 noundef %.lcssa.i25.i.i) #13
  %29 = getelementptr inbounds nuw i8, ptr %2, i64 16
  %30 = load i64, ptr %29, align 16, !tbaa !6
  %31 = tail call i64 @rb_str_to_inum(i64 noundef %30, i32 noundef 10, i32 noundef 0) #13
  %32 = tail call i64 @rb_hash_aset(i64 noundef %4, i64 noundef %28, i64 noundef %31) #13
  %.pr.i29.i.i = load i64, ptr @rfc3339_cb.rbimpl_id.177, align 8, !tbaa !6
  %.not4.i30.i.i = icmp eq i64 %.pr.i29.i.i, 0
  br i1 %.not4.i30.i.i, label %.lr.ph.i32.i.i, label %rbimpl_intern_const.exit34.i.i

.lr.ph.i32.i.i:                                   ; preds = %rbimpl_intern_const.exit28.i.i, %.lr.ph.i32.i.i
  %33 = tail call i64 @rb_intern2(ptr noundef nonnull @.str.65, i64 noundef 4) #13
  store i64 %33, ptr @rfc3339_cb.rbimpl_id.177, align 8, !tbaa !6
  %.not.i33.i.i = icmp eq i64 %33, 0
  br i1 %.not.i33.i.i, label %.lr.ph.i32.i.i, label %rbimpl_intern_const.exit34.i.i, !llvm.loop !36

rbimpl_intern_const.exit34.i.i:                   ; preds = %.lr.ph.i32.i.i, %rbimpl_intern_const.exit28.i.i
  %.lcssa.i31.i.i = phi i64 [ %.pr.i29.i.i, %rbimpl_intern_const.exit28.i.i ], [ %33, %.lr.ph.i32.i.i ]
  %34 = tail call i64 @rb_id2sym(i64 noundef %.lcssa.i31.i.i) #13
  %35 = getelementptr inbounds nuw i8, ptr %2, i64 24
  %36 = load i64, ptr %35, align 8, !tbaa !6
  %37 = tail call i64 @rb_str_to_inum(i64 noundef %36, i32 noundef 10, i32 noundef 0) #13
  %38 = tail call i64 @rb_hash_aset(i64 noundef %4, i64 noundef %34, i64 noundef %37) #13
  %.pr.i35.i.i = load i64, ptr @rfc3339_cb.rbimpl_id.178, align 8, !tbaa !6
  %.not4.i36.i.i = icmp eq i64 %.pr.i35.i.i, 0
  br i1 %.not4.i36.i.i, label %.lr.ph.i38.i.i, label %rbimpl_intern_const.exit40.i.i

.lr.ph.i38.i.i:                                   ; preds = %rbimpl_intern_const.exit34.i.i, %.lr.ph.i38.i.i
  %39 = tail call i64 @rb_intern2(ptr noundef nonnull @.str.52, i64 noundef 4) #13
  store i64 %39, ptr @rfc3339_cb.rbimpl_id.178, align 8, !tbaa !6
  %.not.i39.i.i = icmp eq i64 %39, 0
  br i1 %.not.i39.i.i, label %.lr.ph.i38.i.i, label %rbimpl_intern_const.exit40.i.i, !llvm.loop !36

rbimpl_intern_const.exit40.i.i:                   ; preds = %.lr.ph.i38.i.i, %rbimpl_intern_const.exit34.i.i
  %.lcssa.i37.i.i = phi i64 [ %.pr.i35.i.i, %rbimpl_intern_const.exit34.i.i ], [ %39, %.lr.ph.i38.i.i ]
  %40 = tail call i64 @rb_id2sym(i64 noundef %.lcssa.i37.i.i) #13
  %41 = getelementptr inbounds nuw i8, ptr %2, i64 32
  %42 = load i64, ptr %41, align 16, !tbaa !6
  %43 = tail call i64 @rb_str_to_inum(i64 noundef %42, i32 noundef 10, i32 noundef 0) #13
  %44 = tail call i64 @rb_hash_aset(i64 noundef %4, i64 noundef %40, i64 noundef %43) #13
  %.pr.i41.i.i = load i64, ptr @rfc3339_cb.rbimpl_id.179, align 8, !tbaa !6
  %.not4.i42.i.i = icmp eq i64 %.pr.i41.i.i, 0
  br i1 %.not4.i42.i.i, label %.lr.ph.i44.i.i, label %rbimpl_intern_const.exit46.i.i

.lr.ph.i44.i.i:                                   ; preds = %rbimpl_intern_const.exit40.i.i, %.lr.ph.i44.i.i
  %45 = tail call i64 @rb_intern2(ptr noundef nonnull @.str.54, i64 noundef 3) #13
  store i64 %45, ptr @rfc3339_cb.rbimpl_id.179, align 8, !tbaa !6
  %.not.i45.i.i = icmp eq i64 %45, 0
  br i1 %.not.i45.i.i, label %.lr.ph.i44.i.i, label %rbimpl_intern_const.exit46.i.i, !llvm.loop !36

rbimpl_intern_const.exit46.i.i:                   ; preds = %.lr.ph.i44.i.i, %rbimpl_intern_const.exit40.i.i
  %.lcssa.i43.i.i = phi i64 [ %.pr.i41.i.i, %rbimpl_intern_const.exit40.i.i ], [ %45, %.lr.ph.i44.i.i ]
  %46 = tail call i64 @rb_id2sym(i64 noundef %.lcssa.i43.i.i) #13
  %47 = getelementptr inbounds nuw i8, ptr %2, i64 40
  %48 = load i64, ptr %47, align 8, !tbaa !6
  %49 = tail call i64 @rb_str_to_inum(i64 noundef %48, i32 noundef 10, i32 noundef 0) #13
  %50 = tail call i64 @rb_hash_aset(i64 noundef %4, i64 noundef %46, i64 noundef %49) #13
  %.pr.i47.i.i = load i64, ptr @rfc3339_cb.rbimpl_id.180, align 8, !tbaa !6
  %.not4.i48.i.i = icmp eq i64 %.pr.i47.i.i, 0
  br i1 %.not4.i48.i.i, label %.lr.ph.i50.i.i, label %rbimpl_intern_const.exit52.i.i

.lr.ph.i50.i.i:                                   ; preds = %rbimpl_intern_const.exit46.i.i, %.lr.ph.i50.i.i
  %51 = tail call i64 @rb_intern2(ptr noundef nonnull @.str.56, i64 noundef 3) #13
  store i64 %51, ptr @rfc3339_cb.rbimpl_id.180, align 8, !tbaa !6
  %.not.i51.i.i = icmp eq i64 %51, 0
  br i1 %.not.i51.i.i, label %.lr.ph.i50.i.i, label %rbimpl_intern_const.exit52.i.i, !llvm.loop !36

rbimpl_intern_const.exit52.i.i:                   ; preds = %.lr.ph.i50.i.i, %rbimpl_intern_const.exit46.i.i
  %.lcssa.i49.i.i = phi i64 [ %.pr.i47.i.i, %rbimpl_intern_const.exit46.i.i ], [ %51, %.lr.ph.i50.i.i ]
  %52 = tail call i64 @rb_id2sym(i64 noundef %.lcssa.i49.i.i) #13
  %53 = getelementptr inbounds nuw i8, ptr %2, i64 48
  %54 = load i64, ptr %53, align 16, !tbaa !6
  %55 = tail call i64 @rb_str_to_inum(i64 noundef %54, i32 noundef 10, i32 noundef 0) #13
  %56 = tail call i64 @rb_hash_aset(i64 noundef %4, i64 noundef %52, i64 noundef %55) #13
  %.pr.i53.i.i = load i64, ptr @rfc3339_cb.rbimpl_id.181, align 8, !tbaa !6
  %.not4.i54.i.i = icmp eq i64 %.pr.i53.i.i, 0
  br i1 %.not4.i54.i.i, label %.lr.ph.i56.i.i, label %rbimpl_intern_const.exit58.i.i

.lr.ph.i56.i.i:                                   ; preds = %rbimpl_intern_const.exit52.i.i, %.lr.ph.i56.i.i
  %57 = tail call i64 @rb_intern2(ptr noundef nonnull @.str.37, i64 noundef 4) #13
  store i64 %57, ptr @rfc3339_cb.rbimpl_id.181, align 8, !tbaa !6
  %.not.i57.i.i = icmp eq i64 %57, 0
  br i1 %.not.i57.i.i, label %.lr.ph.i56.i.i, label %rbimpl_intern_const.exit58.i.i, !llvm.loop !36

rbimpl_intern_const.exit58.i.i:                   ; preds = %.lr.ph.i56.i.i, %rbimpl_intern_const.exit52.i.i
  %.lcssa.i55.i.i = phi i64 [ %.pr.i53.i.i, %rbimpl_intern_const.exit52.i.i ], [ %57, %.lr.ph.i56.i.i ]
  %58 = tail call i64 @rb_id2sym(i64 noundef %.lcssa.i55.i.i) #13
  %59 = getelementptr inbounds nuw i8, ptr %2, i64 64
  %60 = load i64, ptr %59, align 16, !tbaa !6
  %61 = tail call i64 @rb_hash_aset(i64 noundef %4, i64 noundef %58, i64 noundef %60) #13
  %.pr.i59.i.i = load i64, ptr @rfc3339_cb.rbimpl_id.182, align 8, !tbaa !6
  %.not4.i60.i.i = icmp eq i64 %.pr.i59.i.i, 0
  br i1 %.not4.i60.i.i, label %.lr.ph.i62.i.i, label %rbimpl_intern_const.exit64.i.i

.lr.ph.i62.i.i:                                   ; preds = %rbimpl_intern_const.exit58.i.i, %.lr.ph.i62.i.i
  %62 = tail call i64 @rb_intern2(ptr noundef nonnull @.str.39, i64 noundef 6) #13
  store i64 %62, ptr @rfc3339_cb.rbimpl_id.182, align 8, !tbaa !6
  %.not.i63.i.i = icmp eq i64 %62, 0
  br i1 %.not.i63.i.i, label %.lr.ph.i62.i.i, label %rbimpl_intern_const.exit64.i.i, !llvm.loop !36

rbimpl_intern_const.exit64.i.i:                   ; preds = %.lr.ph.i62.i.i, %rbimpl_intern_const.exit58.i.i
  %.lcssa.i61.i.i = phi i64 [ %.pr.i59.i.i, %rbimpl_intern_const.exit58.i.i ], [ %62, %.lr.ph.i62.i.i ]
  %63 = tail call i64 @rb_id2sym(i64 noundef %.lcssa.i61.i.i) #13
  %64 = tail call i64 @date_zone_to_diff(i64 noundef %60)
  %65 = tail call i64 @rb_hash_aset(i64 noundef %4, i64 noundef %63, i64 noundef %64) #13
  %66 = getelementptr inbounds nuw i8, ptr %2, i64 56
  %67 = load i64, ptr %66, align 8, !tbaa !6
  %68 = icmp eq i64 %67, 4
  br i1 %68, label %rfc3339_cb.exit.i, label %69

69:                                               ; preds = %rbimpl_intern_const.exit64.i.i
  %.pr.i65.i.i = load i64, ptr @rfc3339_cb.rbimpl_id.183, align 8, !tbaa !6
  %.not4.i66.i.i = icmp eq i64 %.pr.i65.i.i, 0
  br i1 %.not4.i66.i.i, label %.lr.ph.i68.i.i, label %rbimpl_intern_const.exit70.i.i

.lr.ph.i68.i.i:                                   ; preds = %69, %.lr.ph.i68.i.i
  %70 = tail call i64 @rb_intern2(ptr noundef nonnull @.str.58, i64 noundef 12) #13
  store i64 %70, ptr @rfc3339_cb.rbimpl_id.183, align 8, !tbaa !6
  %.not.i69.i.i = icmp eq i64 %70, 0
  br i1 %.not.i69.i.i, label %.lr.ph.i68.i.i, label %rbimpl_intern_const.exit70.i.i, !llvm.loop !36

rbimpl_intern_const.exit70.i.i:                   ; preds = %.lr.ph.i68.i.i, %69
  %.lcssa.i67.i.i = phi i64 [ %.pr.i65.i.i, %69 ], [ %70, %.lr.ph.i68.i.i ]
  %71 = tail call i64 @rb_id2sym(i64 noundef %.lcssa.i67.i.i) #13
  %72 = tail call i64 @rb_str_to_inum(i64 noundef %67, i32 noundef 10, i32 noundef 0) #13
  %.pr.i.i.i.i = load i64, ptr @sec_fraction.rbimpl_id, align 8, !tbaa !6
  %.not4.i.i.i.i = icmp eq i64 %.pr.i.i.i.i, 0
  br i1 %.not4.i.i.i.i, label %.lr.ph.i.i.i.i, label %rbimpl_intern_const.exit.i.i.i

.lr.ph.i.i.i.i:                                   ; preds = %rbimpl_intern_const.exit70.i.i, %.lr.ph.i.i.i.i
  %73 = tail call i64 @rb_intern2(ptr noundef nonnull @.str.50, i64 noundef 2) #13
  store i64 %73, ptr @sec_fraction.rbimpl_id, align 8, !tbaa !6
  %.not.i.i.i.i = icmp eq i64 %73, 0
  br i1 %.not.i.i.i.i, label %.lr.ph.i.i.i.i, label %rbimpl_intern_const.exit.i.i.i, !llvm.loop !36

rbimpl_intern_const.exit.i.i.i:                   ; preds = %.lr.ph.i.i.i.i, %rbimpl_intern_const.exit70.i.i
  %.lcssa.i.i.i.i = phi i64 [ %.pr.i.i.i.i, %rbimpl_intern_const.exit70.i.i ], [ %73, %.lr.ph.i.i.i.i ]
  %74 = inttoptr i64 %67 to ptr
  %75 = getelementptr inbounds nuw i8, ptr %74, i64 16
  %76 = load i64, ptr %75, align 8, !tbaa !10
  %77 = add i64 %76, 4611686018427387904
  %or.cond.i.i.i.i = icmp sgt i64 %77, -1
  br i1 %or.cond.i.i.i.i, label %78, label %81

78:                                               ; preds = %rbimpl_intern_const.exit.i.i.i
  %79 = shl nsw i64 %76, 1
  %80 = or disjoint i64 %79, 1
  br label %sec_fraction.exit.i.i

81:                                               ; preds = %rbimpl_intern_const.exit.i.i.i
  %82 = tail call i64 @rb_int2big(i64 noundef %76) #13
  br label %sec_fraction.exit.i.i

sec_fraction.exit.i.i:                            ; preds = %81, %78
  %.0.i.i.i.i = phi i64 [ %80, %78 ], [ %82, %81 ]
  %83 = tail call i64 (i64, i64, i32, ...) @rb_funcall(i64 noundef 21, i64 noundef %.lcssa.i.i.i.i, i32 noundef 1, i64 noundef %.0.i.i.i.i) #13
  %84 = tail call i64 @rb_rational_new(i64 noundef %72, i64 noundef %83) #13
  %85 = tail call i64 @rb_hash_aset(i64 noundef %4, i64 noundef %71, i64 noundef %84) #13
  br label %rfc3339_cb.exit.i

rfc3339_cb.exit.i:                                ; preds = %sec_fraction.exit.i.i, %rbimpl_intern_const.exit64.i.i
  call void @llvm.lifetime.end.p0(i64 72, ptr nonnull %2) #13
  br label %rfc3339.exit

rfc3339.exit:                                     ; preds = %rbimpl_intern_const.exit.i.i, %rfc3339_cb.exit.i
  tail call void @rb_backref_set(i64 noundef %3) #13
  ret i64 %4
}